; Function Attrs: nounwind uwtable
define ptr @l_Lean_ShareCommon_objectFactory___lambda__5(ptr readnone captures(none) %0, ptr noundef %1, ptr noundef %2, ptr noundef readonly captures(none) %3, ptr noundef %4) local_unnamed_addr #0 {
  %6 = getelementptr inbounds nuw i8, ptr %3, i64 16
  %7 = load ptr, ptr %6, align 8, !tbaa !11
  %8 = getelementptr i8, ptr %7, i64 8
  %.val = load i64, ptr %8, align 8, !tbaa !13
  %9 = and i64 %.val, 9223372036854775807
  %10 = ptrtoint ptr %4 to i64
  %11 = and i64 %10, 1
  %.not = icmp eq i64 %11, 0
  br i1 %.not, label %12, label %lean_inc.exit

12:                                               ; preds = %5
  %.val.i = load i32, ptr %4, align 4, !tbaa !5
  %13 = icmp sgt i32 %.val.i, 0
  br i1 %13, label %14, label %16, !prof !10

14:                                               ; preds = %12
  %15 = add nuw i32 %.val.i, 1
  store i32 %15, ptr %4, align 4, !tbaa !5
  br label %lean_inc.exit

16:                                               ; preds = %12
  %.not.i31 = icmp eq i32 %.val.i, 0
  br i1 %.not.i31, label %lean_inc.exit, label %17

17:                                               ; preds = %16
  tail call void @lean_inc_ref_cold(ptr noundef nonnull %4) #4
  br label %lean_inc.exit

lean_inc.exit:                                    ; preds = %17, %16, %14, %5
  %18 = tail call ptr @lean_apply_1(ptr noundef %2, ptr noundef %4) #4
  %19 = getelementptr i8, ptr %18, i64 8
  %.val30 = load i64, ptr %19, align 8, !tbaa !13
  %20 = ptrtoint ptr %18 to i64
  %21 = and i64 %20, 1
  %.not34 = icmp eq i64 %21, 0
  br i1 %.not34, label %22, label %lean_dec.exit

22:                                               ; preds = %lean_inc.exit
  %23 = load i32, ptr %18, align 4, !tbaa !5
  %24 = icmp sgt i32 %23, 1
  br i1 %24, label %25, label %27, !prof !10

25:                                               ; preds = %22
  %26 = add nsw i32 %23, -1
  store i32 %26, ptr %18, align 4, !tbaa !5
  br label %lean_dec.exit

27:                                               ; preds = %22
  %.not.i = icmp eq i32 %23, 0
  br i1 %.not.i, label %lean_dec.exit, label %28

28:                                               ; preds = %27
  tail call void @lean_dec_ref_cold(ptr noundef nonnull %18) #4
  br label %lean_dec.exit

lean_dec.exit:                                    ; preds = %lean_inc.exit, %25, %27, %28
  %29 = lshr i64 %.val30, 32
  %30 = xor i64 %29, %.val30
  %31 = lshr i64 %30, 16
  %32 = xor i64 %31, %30
  %33 = add nsw i64 %9, -1
  %34 = and i64 %32, %33
  %35 = getelementptr inbounds nuw i8, ptr %7, i64 24
  %36 = getelementptr inbounds nuw [0 x ptr], ptr %35, i64 0, i64 %34
  %37 = load ptr, ptr %36, align 8, !tbaa !11
  %38 = ptrtoint ptr %37 to i64
  %39 = and i64 %38, 1
  %.not.i33 = icmp eq i64 %39, 0
  br i1 %.not.i33, label %40, label %lean_array_uget.exit

40:                                               ; preds = %lean_dec.exit
  %.val.i.i = load i32, ptr %37, align 4, !tbaa !5
  %41 = icmp sgt i32 %.val.i.i, 0
  br i1 %41, label %42, label %44, !prof !10

42:                                               ; preds = %40
  %43 = add nuw i32 %.val.i.i, 1
  store i32 %43, ptr %37, align 4, !tbaa !5
  br label %lean_array_uget.exit

44:                                               ; preds = %40
  %.not.i.i = icmp eq i32 %.val.i.i, 0
  br i1 %.not.i.i, label %lean_array_uget.exit, label %45

45:                                               ; preds = %44
  tail call void @lean_inc_ref_cold(ptr noundef nonnull %37) #4
  br label %lean_array_uget.exit

lean_array_uget.exit:                             ; preds = %lean_dec.exit, %42, %44, %45
  %46 = tail call ptr @l_Std_DHashMap_Internal_AssocList_getKey_x3f___rarg(ptr noundef %1, ptr noundef %4, ptr noundef %37) #4
  ret ptr %46
}